; Function Attrs: mustprogress uwtable
define void @_ZN2cv4gapi6merge4ERKNS_4GMatES3_S3_S3_(ptr dead_on_unwind noalias writable sret(%"class.cv::GMat") align 8 %0, ptr noundef nonnull readonly align 8 captures(none) dereferenceable(16) %1, ptr noundef nonnull readonly align 8 captures(none) dereferenceable(16) %2, ptr noundef nonnull readonly align 8 captures(none) dereferenceable(16) %3, ptr noundef nonnull readonly align 8 captures(none) dereferenceable(16) %4) local_unnamed_addr #3 personality ptr @__gxx_personality_v0 {
  %6 = alloca %"class.cv::GMat", align 8
  %7 = alloca %"class.cv::GMat", align 8
  %8 = alloca %"class.cv::GMat", align 8
  %9 = alloca %"class.cv::GMat", align 8
  %10 = load ptr, ptr %1, align 8, !tbaa !3
  store ptr %10, ptr %6, align 8, !tbaa !3
  %11 = getelementptr inbounds nuw i8, ptr %6, i64 8
  %12 = getelementptr inbounds nuw i8, ptr %1, i64 8
  %13 = load ptr, ptr %12, align 8, !tbaa !11
  store ptr %13, ptr %11, align 8, !tbaa !11
  %.not.i.i.i.i = icmp eq ptr %13, null
  br i1 %.not.i.i.i.i, label %_ZN2cv4GMatC2ERKS0_.exit, label %14

14:                                               ; preds = %5
  %15 = getelementptr inbounds nuw i8, ptr %13, i64 8
  %16 = load i8, ptr @__libc_single_threaded, align 1, !tbaa !12
  %.not.i.i.i.i.i = icmp eq i8 %16, 0
  br i1 %.not.i.i.i.i.i, label %20, label %17

17:                                               ; preds = %14
  %18 = load i32, ptr %15, align 4, !tbaa !13
  %19 = add nsw i32 %18, 1
  store i32 %19, ptr %15, align 4, !tbaa !13
  br label %_ZN2cv4GMatC2ERKS0_.exit

20:                                               ; preds = %14
  %21 = atomicrmw volatile add ptr %15, i32 1 acq_rel, align 4
  br label %_ZN2cv4GMatC2ERKS0_.exit

_ZN2cv4GMatC2ERKS0_.exit:                         ; preds = %5, %17, %20
  %22 = load ptr, ptr %2, align 8, !tbaa !3
  store ptr %22, ptr %7, align 8, !tbaa !3
  %23 = getelementptr inbounds nuw i8, ptr %7, i64 8
  %24 = getelementptr inbounds nuw i8, ptr %2, i64 8
  %25 = load ptr, ptr %24, align 8, !tbaa !11
  store ptr %25, ptr %23, align 8, !tbaa !11
  %.not.i.i.i.i5 = icmp eq ptr %25, null
  br i1 %.not.i.i.i.i5, label %_ZN2cv4GMatC2ERKS0_.exit7, label %26

26:                                               ; preds = %_ZN2cv4GMatC2ERKS0_.exit
  %27 = getelementptr inbounds nuw i8, ptr %25, i64 8
  %28 = load i8, ptr @__libc_single_threaded, align 1, !tbaa !12
  %.not.i.i.i.i.i6 = icmp eq i8 %28, 0
  br i1 %.not.i.i.i.i.i6, label %32, label %29

29:                                               ; preds = %26
  %30 = load i32, ptr %27, align 4, !tbaa !13
  %31 = add nsw i32 %30, 1
  store i32 %31, ptr %27, align 4, !tbaa !13
  br label %_ZN2cv4GMatC2ERKS0_.exit7

32:                                               ; preds = %26
  %33 = atomicrmw volatile add ptr %27, i32 1 acq_rel, align 4
  br label %_ZN2cv4GMatC2ERKS0_.exit7

_ZN2cv4GMatC2ERKS0_.exit7:                        ; preds = %_ZN2cv4GMatC2ERKS0_.exit, %29, %32
  %34 = load ptr, ptr %3, align 8, !tbaa !3
  store ptr %34, ptr %8, align 8, !tbaa !3
  %35 = getelementptr inbounds nuw i8, ptr %8, i64 8
  %36 = getelementptr inbounds nuw i8, ptr %3, i64 8
  %37 = load ptr, ptr %36, align 8, !tbaa !11
  store ptr %37, ptr %35, align 8, !tbaa !11
  %.not.i.i.i.i8 = icmp eq ptr %37, null
  br i1 %.not.i.i.i.i8, label %_ZN2cv4GMatC2ERKS0_.exit10, label %38

38:                                               ; preds = %_ZN2cv4GMatC2ERKS0_.exit7
  %39 = getelementptr inbounds nuw i8, ptr %37, i64 8
  %40 = load i8, ptr @__libc_single_threaded, align 1, !tbaa !12
  %.not.i.i.i.i.i9 = icmp eq i8 %40, 0
  br i1 %.not.i.i.i.i.i9, label %44, label %41

41:                                               ; preds = %38
  %42 = load i32, ptr %39, align 4, !tbaa !13
  %43 = add nsw i32 %42, 1
  store i32 %43, ptr %39, align 4, !tbaa !13
  br label %_ZN2cv4GMatC2ERKS0_.exit10

44:                                               ; preds = %38
  %45 = atomicrmw volatile add ptr %39, i32 1 acq_rel, align 4
  br label %_ZN2cv4GMatC2ERKS0_.exit10

_ZN2cv4GMatC2ERKS0_.exit10:                       ; preds = %_ZN2cv4GMatC2ERKS0_.exit7, %41, %44
  %46 = load ptr, ptr %4, align 8, !tbaa !3
  store ptr %46, ptr %9, align 8, !tbaa !3
  %47 = getelementptr inbounds nuw i8, ptr %9, i64 8
  %48 = getelementptr inbounds nuw i8, ptr %4, i64 8
  %49 = load ptr, ptr %48, align 8, !tbaa !11
  store ptr %49, ptr %47, align 8, !tbaa !11
  %.not.i.i.i.i11 = icmp eq ptr %49, null
  br i1 %.not.i.i.i.i11, label %_ZN2cv4GMatC2ERKS0_.exit13, label %50

50:                                               ; preds = %_ZN2cv4GMatC2ERKS0_.exit10
  %51 = getelementptr inbounds nuw i8, ptr %49, i64 8
  %52 = load i8, ptr @__libc_single_threaded, align 1, !tbaa !12
  %.not.i.i.i.i.i12 = icmp eq i8 %52, 0
  br i1 %.not.i.i.i.i.i12, label %56, label %53

53:                                               ; preds = %50
  %54 = load i32, ptr %51, align 4, !tbaa !13
  %55 = add nsw i32 %54, 1
  store i32 %55, ptr %51, align 4, !tbaa !13
  br label %_ZN2cv4GMatC2ERKS0_.exit13

56:                                               ; preds = %50
  %57 = atomicrmw volatile add ptr %51, i32 1 acq_rel, align 4
  br label %_ZN2cv4GMatC2ERKS0_.exit13

_ZN2cv4GMatC2ERKS0_.exit13:                       ; preds = %_ZN2cv4GMatC2ERKS0_.exit10, %53, %56
  invoke void @_ZN2cv11GKernelTypeINS_4gapi4core7GMerge4ESt8functionIFNS_4GMatES5_S5_S5_S5_EEE2onES5_S5_S5_S5_(ptr dead_on_unwind writable sret(%"class.cv::GMat") align 8 %0, ptr noundef nonnull %6, ptr noundef nonnull %7, ptr noundef nonnull %8, ptr noundef nonnull %9)
          to label %58 unwind label %147

58:                                               ; preds = %_ZN2cv4GMatC2ERKS0_.exit13
  %59 = load ptr, ptr %47, align 8, !tbaa !11
  %.not.i.i.i = icmp eq ptr %59, null
  br i1 %.not.i.i.i, label %_ZN2cv4GMatD2Ev.exit, label %60

60:                                               ; preds = %58
  %61 = getelementptr inbounds nuw i8, ptr %59, i64 8
  %62 = load atomic i64, ptr %61 acquire, align 8
  %63 = icmp eq i64 %62, 4294967297
  %64 = trunc i64 %62 to i32
  br i1 %63, label %65, label %73

65:                                               ; preds = %60
  store i32 0, ptr %61, align 8, !tbaa !15
  %66 = getelementptr inbounds nuw i8, ptr %59, i64 12
  store i32 0, ptr %66, align 4, !tbaa !17
  %67 = load ptr, ptr %59, align 8, !tbaa !18
  %68 = getelementptr inbounds nuw i8, ptr %67, i64 16
  %69 = load ptr, ptr %68, align 8
  call void %69(ptr noundef nonnull align 8 dereferenceable(16) %59) #23
  %70 = load ptr, ptr %59, align 8, !tbaa !18
  %71 = getelementptr inbounds nuw i8, ptr %70, i64 24
  %72 = load ptr, ptr %71, align 8
  call void %72(ptr noundef nonnull align 8 dereferenceable(16) %59) #23
  br label %_ZN2cv4GMatD2Ev.exit

73:                                               ; preds = %60
  %74 = load i8, ptr @__libc_single_threaded, align 1, !tbaa !12
  %.not.i.i.i.i14 = icmp eq i8 %74, 0
  br i1 %.not.i.i.i.i14, label %77, label %75

75:                                               ; preds = %73
  %76 = add nsw i32 %64, -1
  store i32 %76, ptr %61, align 4, !tbaa !13
  br label %_ZN9__gnu_cxx27__exchange_and_add_dispatchEPii.exit.i.i.i.i

77:                                               ; preds = %73
  %78 = atomicrmw volatile add ptr %61, i32 -1 acq_rel, align 4
  br label %_ZN9__gnu_cxx27__exchange_and_add_dispatchEPii.exit.i.i.i.i

_ZN9__gnu_cxx27__exchange_and_add_dispatchEPii.exit.i.i.i.i: ; preds = %77, %75
  %.0.i.i.i.i.i = phi i32 [ %64, %75 ], [ %78, %77 ]
  %79 = icmp eq i32 %.0.i.i.i.i.i, 1
  br i1 %79, label %80, label %_ZN2cv4GMatD2Ev.exit, !prof !20

80:                                               ; preds = %_ZN9__gnu_cxx27__exchange_and_add_dispatchEPii.exit.i.i.i.i
  call void @_ZNSt16_Sp_counted_baseILN9__gnu_cxx12_Lock_policyE2EE24_M_release_last_use_coldEv(ptr noundef nonnull align 8 dereferenceable(16) %59) #23
  br label %_ZN2cv4GMatD2Ev.exit

_ZN2cv4GMatD2Ev.exit:                             ; preds = %58, %65, %_ZN9__gnu_cxx27__exchange_and_add_dispatchEPii.exit.i.i.i.i, %80
  %81 = load ptr, ptr %35, align 8, !tbaa !11
  %.not.i.i.i15 = icmp eq ptr %81, null
  br i1 %.not.i.i.i15, label %_ZN2cv4GMatD2Ev.exit19, label %82

82:                                               ; preds = %_ZN2cv4GMatD2Ev.exit
  %83 = getelementptr inbounds nuw i8, ptr %81, i64 8
  %84 = load atomic i64, ptr %83 acquire, align 8
  %85 = icmp eq i64 %84, 4294967297
  %86 = trunc i64 %84 to i32
  br i1 %85, label %87, label %95

87:                                               ; preds = %82
  store i32 0, ptr %83, align 8, !tbaa !15
  %88 = getelementptr inbounds nuw i8, ptr %81, i64 12
  store i32 0, ptr %88, align 4, !tbaa !17
  %89 = load ptr, ptr %81, align 8, !tbaa !18
  %90 = getelementptr inbounds nuw i8, ptr %89, i64 16
  %91 = load ptr, ptr %90, align 8
  call void %91(ptr noundef nonnull align 8 dereferenceable(16) %81) #23
  %92 = load ptr, ptr %81, align 8, !tbaa !18
  %93 = getelementptr inbounds nuw i8, ptr %92, i64 24
  %94 = load ptr, ptr %93, align 8
  call void %94(ptr noundef nonnull align 8 dereferenceable(16) %81) #23
  br label %_ZN2cv4GMatD2Ev.exit19

95:                                               ; preds = %82
  %96 = load i8, ptr @__libc_single_threaded, align 1, !tbaa !12
  %.not.i.i.i.i16 = icmp eq i8 %96, 0
  br i1 %.not.i.i.i.i16, label %99, label %97

97:                                               ; preds = %95
  %98 = add nsw i32 %86, -1
  store i32 %98, ptr %83, align 4, !tbaa !13
  br label %_ZN9__gnu_cxx27__exchange_and_add_dispatchEPii.exit.i.i.i.i17

99:                                               ; preds = %95
  %100 = atomicrmw volatile add ptr %83, i32 -1 acq_rel, align 4
  br label %_ZN9__gnu_cxx27__exchange_and_add_dispatchEPii.exit.i.i.i.i17

_ZN9__gnu_cxx27__exchange_and_add_dispatchEPii.exit.i.i.i.i17: ; preds = %99, %97
  %.0.i.i.i.i.i18 = phi i32 [ %86, %97 ], [ %100, %99 ]
  %101 = icmp eq i32 %.0.i.i.i.i.i18, 1
  br i1 %101, label %102, label %_ZN2cv4GMatD2Ev.exit19, !prof !20

102:                                              ; preds = %_ZN9__gnu_cxx27__exchange_and_add_dispatchEPii.exit.i.i.i.i17
  call void @_ZNSt16_Sp_counted_baseILN9__gnu_cxx12_Lock_policyE2EE24_M_release_last_use_coldEv(ptr noundef nonnull align 8 dereferenceable(16) %81) #23
  br label %_ZN2cv4GMatD2Ev.exit19

_ZN2cv4GMatD2Ev.exit19:                           ; preds = %_ZN2cv4GMatD2Ev.exit, %87, %_ZN9__gnu_cxx27__exchange_and_add_dispatchEPii.exit.i.i.i.i17, %102
  %103 = load ptr, ptr %23, align 8, !tbaa !11
  %.not.i.i.i20 = icmp eq ptr %103, null
  br i1 %.not.i.i.i20, label %_ZN2cv4GMatD2Ev.exit24, label %104

104:                                              ; preds = %_ZN2cv4GMatD2Ev.exit19
  %105 = getelementptr inbounds nuw i8, ptr %103, i64 8
  %106 = load atomic i64, ptr %105 acquire, align 8
  %107 = icmp eq i64 %106, 4294967297
  %108 = trunc i64 %106 to i32
  br i1 %107, label %109, label %117

109:                                              ; preds = %104
  store i32 0, ptr %105, align 8, !tbaa !15
  %110 = getelementptr inbounds nuw i8, ptr %103, i64 12
  store i32 0, ptr %110, align 4, !tbaa !17
  %111 = load ptr, ptr %103, align 8, !tbaa !18
  %112 = getelementptr inbounds nuw i8, ptr %111, i64 16
  %113 = load ptr, ptr %112, align 8
  call void %113(ptr noundef nonnull align 8 dereferenceable(16) %103) #23
  %114 = load ptr, ptr %103, align 8, !tbaa !18
  %115 = getelementptr inbounds nuw i8, ptr %114, i64 24
  %116 = load ptr, ptr %115, align 8
  call void %116(ptr noundef nonnull align 8 dereferenceable(16) %103) #23
  br label %_ZN2cv4GMatD2Ev.exit24

117:                                              ; preds = %104
  %118 = load i8, ptr @__libc_single_threaded, align 1, !tbaa !12
  %.not.i.i.i.i21 = icmp eq i8 %118, 0
  br i1 %.not.i.i.i.i21, label %121, label %119

119:                                              ; preds = %117
  %120 = add nsw i32 %108, -1
  store i32 %120, ptr %105, align 4, !tbaa !13
  br label %_ZN9__gnu_cxx27__exchange_and_add_dispatchEPii.exit.i.i.i.i22

121:                                              ; preds = %117
  %122 = atomicrmw volatile add ptr %105, i32 -1 acq_rel, align 4
  br label %_ZN9__gnu_cxx27__exchange_and_add_dispatchEPii.exit.i.i.i.i22

_ZN9__gnu_cxx27__exchange_and_add_dispatchEPii.exit.i.i.i.i22: ; preds = %121, %119
  %.0.i.i.i.i.i23 = phi i32 [ %108, %119 ], [ %122, %121 ]
  %123 = icmp eq i32 %.0.i.i.i.i.i23, 1
  br i1 %123, label %124, label %_ZN2cv4GMatD2Ev.exit24, !prof !20

124:                                              ; preds = %_ZN9__gnu_cxx27__exchange_and_add_dispatchEPii.exit.i.i.i.i22
  call void @_ZNSt16_Sp_counted_baseILN9__gnu_cxx12_Lock_policyE2EE24_M_release_last_use_coldEv(ptr noundef nonnull align 8 dereferenceable(16) %103) #23
  br label %_ZN2cv4GMatD2Ev.exit24

_ZN2cv4GMatD2Ev.exit24:                           ; preds = %_ZN2cv4GMatD2Ev.exit19, %109, %_ZN9__gnu_cxx27__exchange_and_add_dispatchEPii.exit.i.i.i.i22, %124
  %125 = load ptr, ptr %11, align 8, !tbaa !11
  %.not.i.i.i25 = icmp eq ptr %125, null
  br i1 %.not.i.i.i25, label %_ZN2cv4GMatD2Ev.exit29, label %126

126:                                              ; preds = %_ZN2cv4GMatD2Ev.exit24
  %127 = getelementptr inbounds nuw i8, ptr %125, i64 8
  %128 = load atomic i64, ptr %127 acquire, align 8
  %129 = icmp eq i64 %128, 4294967297
  %130 = trunc i64 %128 to i32
  br i1 %129, label %131, label %139

131:                                              ; preds = %126
  store i32 0, ptr %127, align 8, !tbaa !15
  %132 = getelementptr inbounds nuw i8, ptr %125, i64 12
  store i32 0, ptr %132, align 4, !tbaa !17
  %133 = load ptr, ptr %125, align 8, !tbaa !18
  %134 = getelementptr inbounds nuw i8, ptr %133, i64 16
  %135 = load ptr, ptr %134, align 8
  call void %135(ptr noundef nonnull align 8 dereferenceable(16) %125) #23
  %136 = load ptr, ptr %125, align 8, !tbaa !18
  %137 = getelementptr inbounds nuw i8, ptr %136, i64 24
  %138 = load ptr, ptr %137, align 8
  call void %138(ptr noundef nonnull align 8 dereferenceable(16) %125) #23
  br label %_ZN2cv4GMatD2Ev.exit29

139:                                              ; preds = %126
  %140 = load i8, ptr @__libc_single_threaded, align 1, !tbaa !12
  %.not.i.i.i.i26 = icmp eq i8 %140, 0
  br i1 %.not.i.i.i.i26, label %143, label %141

141:                                              ; preds = %139
  %142 = add nsw i32 %130, -1
  store i32 %142, ptr %127, align 4, !tbaa !13
  br label %_ZN9__gnu_cxx27__exchange_and_add_dispatchEPii.exit.i.i.i.i27

143:                                              ; preds = %139
  %144 = atomicrmw volatile add ptr %127, i32 -1 acq_rel, align 4
  br label %_ZN9__gnu_cxx27__exchange_and_add_dispatchEPii.exit.i.i.i.i27

_ZN9__gnu_cxx27__exchange_and_add_dispatchEPii.exit.i.i.i.i27: ; preds = %143, %141
  %.0.i.i.i.i.i28 = phi i32 [ %130, %141 ], [ %144, %143 ]
  %145 = icmp eq i32 %.0.i.i.i.i.i28, 1
  br i1 %145, label %146, label %_ZN2cv4GMatD2Ev.exit29, !prof !20

146:                                              ; preds = %_ZN9__gnu_cxx27__exchange_and_add_dispatchEPii.exit.i.i.i.i27
  call void @_ZNSt16_Sp_counted_baseILN9__gnu_cxx12_Lock_policyE2EE24_M_release_last_use_coldEv(ptr noundef nonnull align 8 dereferenceable(16) %125) #23
  br label %_ZN2cv4GMatD2Ev.exit29

_ZN2cv4GMatD2Ev.exit29:                           ; preds = %_ZN2cv4GMatD2Ev.exit24, %131, %_ZN9__gnu_cxx27__exchange_and_add_dispatchEPii.exit.i.i.i.i27, %146
  ret void

147:                                              ; preds = %_ZN2cv4GMatC2ERKS0_.exit13
  %148 = landingpad { ptr, i32 }
          cleanup
  call void @_ZN2cv4GMatD2Ev(ptr noundef nonnull align 8 dereferenceable(16) %9) #23
  call void @_ZN2cv4GMatD2Ev(ptr noundef nonnull align 8 dereferenceable(16) %8) #23
  call void @_ZN2cv4GMatD2Ev(ptr noundef nonnull align 8 dereferenceable(16) %7) #23
  call void @_ZN2cv4GMatD2Ev(ptr noundef nonnull align 8 dereferenceable(16) %6) #23
  resume { ptr, i32 } %148
}